target datalayout = "e-m:e-p270:32:32-p271:32:32-p272:64:64-i64:64-i128:128-f80:128-n8:16:32:64-S128"
target triple = "x86_64-pc-linux-gnu"

@.str.101 = private unnamed_addr constant [29 x i8] c"Value too low to be measured\00", align 1
@.str.102 = private unnamed_addr constant [14 x i8] c"Invalid value\00", align 1
@.str.103 = private unnamed_addr constant [14 x i8] c"%d (=%f [lx])\00", align 1

; Function Attrs: null_pointer_is_valid sspstrong uwtable
define internal void @decode_illum_meas_value(ptr noundef %0, i16 noundef zeroext %1) #0 {
  %3 = alloca ptr, align 8
  %4 = alloca i16, align 2
  store ptr %0, ptr %3, align 8
  store i16 %1, ptr %4, align 2
  %5 = load i16, ptr %4, align 2
  %6 = zext i16 %5 to i32
  %7 = icmp eq i32 %6, 0
  br i1 %7, label %8, label %13

8:                                                ; preds = %2
  %9 = load ptr, ptr %3, align 8
  %10 = load ptr, ptr %3, align 8
  %11 = call i64 @llvm.objectsize.i64.p0(ptr %10, i1 false, i1 true, i1 true)
  %12 = call i32 (ptr, i64, i32, i64, ptr, ...) @__snprintf_chk(ptr noundef %9, i64 noundef 240, i32 noundef 2, i64 noundef %11, ptr noundef @.str.101)
  br label %36

13:                                               ; preds = %2
  %14 = load i16, ptr %4, align 2
  %15 = zext i16 %14 to i32
  %16 = icmp eq i32 %15, 32768
  br i1 %16, label %17, label %22

17:                                               ; preds = %13
  %18 = load ptr, ptr %3, align 8
  %19 = load ptr, ptr %3, align 8
  %20 = call i64 @llvm.objectsize.i64.p0(ptr %19, i1 false, i1 true, i1 true)
  %21 = call i32 (ptr, i64, i32, i64, ptr, ...) @__snprintf_chk(ptr noundef %18, i64 noundef 240, i32 noundef 2, i64 noundef %20, ptr noundef @.str.102)
  br label %35

22:                                               ; preds = %13
  %23 = load ptr, ptr %3, align 8
  %24 = load ptr, ptr %3, align 8
  %25 = call i64 @llvm.objectsize.i64.p0(ptr %24, i1 false, i1 true, i1 true)
  %26 = load i16, ptr %4, align 2
  %27 = zext i16 %26 to i32
  %28 = load i16, ptr %4, align 2
  %29 = zext i16 %28 to i32
  %30 = sitofp i32 %29 to double
  %31 = fdiv double %30, 1.000000e+04
  %32 = call double @pow(double noundef 1.000000e+01, double noundef %31) #6
  %33 = fsub double %32, 1.000000e+00
  %34 = call i32 (ptr, i64, i32, i64, ptr, ...) @__snprintf_chk(ptr noundef %23, i64 noundef 240, i32 noundef 2, i64 noundef %25, ptr noundef @.str.103, i32 noundef %27, double noundef %33)
  br label %35

35:                                               ; preds = %22, %17
  br label %36

36:                                               ; preds = %35, %8
  ret void
}