; Function Attrs: nofree null_pointer_is_valid sspstrong uwtable
define internal void @decode_illum_meas_value(ptr noundef %0, i16 noundef zeroext %1) #1 {
  switch i16 %1, label %7 [
    i16 0, label %3
    i16 -32768, label %5
  ]

3:                                                ; preds = %2
  %4 = tail call i32 (ptr, i64, i32, i64, ptr, ...) @__snprintf_chk(ptr noundef %0, i64 noundef 240, i32 noundef 2, i64 noundef -1, ptr noundef nonnull @.str.101)
  br label %14

5:                                                ; preds = %2
  %6 = tail call i32 (ptr, i64, i32, i64, ptr, ...) @__snprintf_chk(ptr noundef %0, i64 noundef 240, i32 noundef 2, i64 noundef -1, ptr noundef nonnull @.str.102)
  br label %14

7:                                                ; preds = %2
  %8 = zext i16 %1 to i32
  %9 = uitofp i16 %1 to double
  %10 = fdiv double %9, 1.000000e+04
  %11 = tail call double @pow(double noundef 1.000000e+01, double noundef %10) #6
  %12 = fadd double %11, -1.000000e+00
  %13 = tail call i32 (ptr, i64, i32, i64, ptr, ...) @__snprintf_chk(ptr noundef %0, i64 noundef 240, i32 noundef 2, i64 noundef -1, ptr noundef nonnull @.str.103, i32 noundef %8, double noundef %12)
  br label %14

14:                                               ; preds = %5, %7, %3
  ret void
}